target datalayout = "e-m:e-p270:32:32-p271:32:32-p272:64:64-i64:64-i128:128-f80:128-n8:16:32:64-S128"
target triple = "x86_64-pc-linux-gnu"

%class.QString = type { %struct.QArrayDataPointer }
%struct.QArrayDataPointer = type { ptr, ptr, i64 }
%class.ATapDataModel = type { %class.QAbstractListModel, i32, ptr, %class.QString, i8, i8, i8, i8, double, double, i32, %struct._conversation_hash_t }
%class.QAbstractListModel = type { %class.QAbstractItemModel }
%class.QAbstractItemModel = type { %class.QObject }
%class.QObject = type { ptr, %class.QScopedPointer }
%class.QScopedPointer = type { ptr }
%struct._conversation_hash_t = type { ptr, ptr, ptr, i32 }

; Function Attrs: mustprogress uwtable
define noundef ptr @_ZNK13ATapDataModel13registerTableEv(ptr noundef nonnull align 8 dereferenceable(120) %0) #0 align 2 {
  %2 = alloca ptr, align 8
  %3 = alloca ptr, align 8
  store ptr %0, ptr %3, align 8
  %4 = load ptr, ptr %3, align 8
  %5 = getelementptr inbounds %class.ATapDataModel, ptr %4, i32 0, i32 10
  %6 = load i32, ptr %5, align 8
  %7 = icmp sgt i32 %6, -1
  br i1 %7, label %8, label %12

8:                                                ; preds = %1
  %9 = getelementptr inbounds %class.ATapDataModel, ptr %4, i32 0, i32 10
  %10 = load i32, ptr %9, align 8
  %11 = call ptr @get_conversation_by_proto_id(i32 noundef %10)
  store ptr %11, ptr %2, align 8
  br label %13

12:                                               ; preds = %1
  store ptr null, ptr %2, align 8
  br label %13

13:                                               ; preds = %12, %8
  %14 = load ptr, ptr %2, align 8
  ret ptr %14
}

; Function Attrs: mustprogress uwtable
define noundef zeroext i1 @_ZNK13ATapDataModel14portsAreHiddenEv(ptr noundef nonnull align 8 dereferenceable(120) %0) #0 align 2 {
  %2 = alloca ptr, align 8
  store ptr %0, ptr %2, align 8
  %3 = load ptr, ptr %2, align 8
  %4 = call noundef ptr @_ZNK13ATapDataModel13registerTableEv(ptr noundef nonnull align 8 dereferenceable(120) %3)
  %5 = call i32 @get_conversation_hide_ports(ptr noundef %4)
  %6 = icmp ne i32 %5, 0
  ret i1 %6
}