; Function Attrs: mustprogress uwtable
define noundef zeroext i1 @_ZNK13ATapDataModel14portsAreHiddenEv(ptr nocapture noundef nonnull readonly align 8 dereferenceable(120) %0) local_unnamed_addr #0 align 2 {
  %2 = getelementptr inbounds i8, ptr %0, i64 80
  %3 = load i32, ptr %2, align 8
  %4 = icmp sgt i32 %3, -1
  br i1 %4, label %5, label %_ZNK13ATapDataModel13registerTableEv.exit

5:                                                ; preds = %1
  %6 = tail call ptr @get_conversation_by_proto_id(i32 noundef %3)
  br label %_ZNK13ATapDataModel13registerTableEv.exit

_ZNK13ATapDataModel13registerTableEv.exit:        ; preds = %1, %5
  %.0.i = phi ptr [ %6, %5 ], [ null, %1 ]
  %7 = tail call i32 @get_conversation_hide_ports(ptr noundef %.0.i)
  %8 = icmp ne i32 %7, 0
  ret i1 %8
}